target datalayout = "e-m:e-p270:32:32-p271:32:32-p272:64:64-i64:64-i128:128-f80:128-n8:16:32:64-S128"
target triple = "x86_64-pc-linux-gnu"

@proto_register_linx_tcp.ett = internal global [1 x ptr] [ptr @ett_linx_tcp], align 8
@.str.133 = private unnamed_addr constant [19 x i8] c"ENEA LINX over TCP\00", align 1
@.str.134 = private unnamed_addr constant [9 x i8] c"LINX/TCP\00", align 1
@.str.135 = private unnamed_addr constant [8 x i8] c"linxtcp\00", align 1
@proto_linx_tcp = internal global i32 0, align 4

; Function Attrs: null_pointer_is_valid sspstrong uwtable
define hidden void @proto_register_linx_tcp() #0 {
  %1 = alloca ptr, align 8
  call void @llvm.lifetime.start.p0(i64 8, ptr %1) #3
  %2 = call i32 @proto_register_protocol(ptr noundef @.str.133, ptr noundef @.str.134, ptr noundef @.str.135)
  store i32 %2, ptr @proto_linx_tcp, align 4
  %3 = load i32, ptr @proto_linx_tcp, align 4
  call void @proto_register_field_array(i32 noundef %3, ptr noundef @proto_register_linx_tcp.hf, i32 noundef 16)
  call void @proto_register_subtree_array(ptr noundef @proto_register_linx_tcp.ett, i32 noundef 1)
  %4 = load i32, ptr @proto_linx_tcp, align 4
  %5 = call ptr @expert_register_protocol(i32 noundef %4)
  store ptr %5, ptr %1, align 8
  %6 = load ptr, ptr %1, align 8
  call void @expert_register_field_array(ptr noundef %6, ptr noundef @proto_register_linx_tcp.ei, i32 noundef 2)
  call void @llvm.lifetime.end.p0(i64 8, ptr %1) #3
  ret void
}