; Function Attrs: null_pointer_is_valid sspstrong uwtable
define hidden void @proto_register_linx_tcp() local_unnamed_addr #0 {
  %1 = tail call i32 @proto_register_protocol(ptr noundef nonnull @.str.133, ptr noundef nonnull @.str.134, ptr noundef nonnull @.str.135)
  store i32 %1, ptr @proto_linx_tcp, align 4
  tail call void @proto_register_field_array(i32 noundef %1, ptr noundef nonnull @proto_register_linx_tcp.hf, i32 noundef 16)
  tail call void @proto_register_subtree_array(ptr noundef nonnull @proto_register_linx_tcp.ett, i32 noundef 1)
  %2 = load i32, ptr @proto_linx_tcp, align 4
  %3 = tail call ptr @expert_register_protocol(i32 noundef %2)
  tail call void @expert_register_field_array(ptr noundef %3, ptr noundef nonnull @proto_register_linx_tcp.ei, i32 noundef 2)
  ret void
}